; ModuleID = '48/1647.c'
source_filename = "48/1647.c"
target datalayout = "e-m:e-p270:32:32-p271:32:32-p272:64:64-i64:64-f80:128-n8:16:32:64-S128"
target triple = "x86_64-pc-linux-gnu"

@.str = private unnamed_addr constant [6 x i8] c"%d %d\00", align 1
@.str.1 = private unnamed_addr constant [3 x i8] c"%d\00", align 1
@.str.2 = private unnamed_addr constant [4 x i8] c" %d\00", align 1
@.str.3 = private unnamed_addr constant [2 x i8] c"\0A\00", align 1

; Function Attrs: noinline nounwind uwtable
define dso_local i32 @main() #0 {
  %1 = alloca i32, align 4
  %2 = alloca i32, align 4
  %3 = alloca i32, align 4
  %4 = alloca i32, align 4
  %5 = alloca i32, align 4
  %6 = alloca i32, align 4
  %7 = alloca [11 x [11 x i32]], align 16
  %8 = alloca [11 x [11 x i32]], align 16
  store i32 0, i32* %1, align 4
  %9 = bitcast [11 x [11 x i32]]* %7 to i8*
  call void @llvm.memset.p0i8.i64(i8* align 16 %9, i8 0, i64 484, i1 false)
  %10 = bitcast [11 x [11 x i32]]* %8 to i8*
  call void @llvm.memset.p0i8.i64(i8* align 16 %10, i8 0, i64 484, i1 false)
  %11 = call i32 (i8*, ...) @__isoc99_scanf(i8* getelementptr inbounds ([6 x i8], [6 x i8]* @.str, i64 0, i64 0), i32* %2, i32* %3)
  %12 = load i32, i32* %2, align 4
  %13 = getelementptr inbounds [11 x [11 x i32]], [11 x [11 x i32]]* %7, i64 0, i64 5
  %14 = getelementptr inbounds [11 x i32], [11 x i32]* %13, i64 0, i64 5
  store i32 %12, i32* %14, align 4
  %15 = getelementptr inbounds [11 x [11 x i32]], [11 x [11 x i32]]* %8, i64 0, i64 5
  %16 = getelementptr inbounds [11 x i32], [11 x i32]* %15, i64 0, i64 5
  store i32 %12, i32* %16, align 4
  store i32 1, i32* %6, align 4
  br label %17

17:                                               ; preds = %178, %0
  %18 = load i32, i32* %6, align 4
  %19 = load i32, i32* %3, align 4
  %20 = icmp sle i32 %18, %19
  br i1 %20, label %21, label %181

21:                                               ; preds = %17
  %22 = load i32, i32* %6, align 4
  %23 = sub nsw i32 5, %22
  store i32 %23, i32* %4, align 4
  br label %24

24:                                               ; preds = %132, %21
  %25 = load i32, i32* %4, align 4
  %26 = load i32, i32* %6, align 4
  %27 = add nsw i32 5, %26
  %28 = icmp sle i32 %25, %27
  br i1 %28, label %29, label %135

29:                                               ; preds = %24
  %30 = load i32, i32* %6, align 4
  %31 = sub nsw i32 5, %30
  store i32 %31, i32* %5, align 4
  br label %32

32:                                               ; preds = %128, %29
  %33 = load i32, i32* %5, align 4
  %34 = load i32, i32* %6, align 4
  %35 = add nsw i32 5, %34
  %36 = icmp sle i32 %33, %35
  br i1 %36, label %37, label %131

37:                                               ; preds = %32
  %38 = load i32, i32* %4, align 4
  %39 = sext i32 %38 to i64
  %40 = getelementptr inbounds [11 x [11 x i32]], [11 x [11 x i32]]* %8, i64 0, i64 %39
  %41 = load i32, i32* %5, align 4
  %42 = sext i32 %41 to i64
  %43 = getelementptr inbounds [11 x i32], [11 x i32]* %40, i64 0, i64 %42
  %44 = load i32, i32* %43, align 4
  %45 = mul nsw i32 2, %44
  %46 = load i32, i32* %4, align 4
  %47 = sub nsw i32 %46, 1
  %48 = sext i32 %47 to i64
  %49 = getelementptr inbounds [11 x [11 x i32]], [11 x [11 x i32]]* %8, i64 0, i64 %48
  %50 = load i32, i32* %5, align 4
  %51 = sub nsw i32 %50, 1
  %52 = sext i32 %51 to i64
  %53 = getelementptr inbounds [11 x i32], [11 x i32]* %49, i64 0, i64 %52
  %54 = load i32, i32* %53, align 4
  %55 = add nsw i32 %45, %54
  %56 = load i32, i32* %4, align 4
  %57 = sub nsw i32 %56, 1
  %58 = sext i32 %57 to i64
  %59 = getelementptr inbounds [11 x [11 x i32]], [11 x [11 x i32]]* %8, i64 0, i64 %58
  %60 = load i32, i32* %5, align 4
  %61 = sext i32 %60 to i64
  %62 = getelementptr inbounds [11 x i32], [11 x i32]* %59, i64 0, i64 %61
  %63 = load i32, i32* %62, align 4
  %64 = add nsw i32 %55, %63
  %65 = load i32, i32* %4, align 4
  %66 = sub nsw i32 %65, 1
  %67 = sext i32 %66 to i64
  %68 = getelementptr inbounds [11 x [11 x i32]], [11 x [11 x i32]]* %8, i64 0, i64 %67
  %69 = load i32, i32* %5, align 4
  %70 = add nsw i32 %69, 1
  %71 = sext i32 %70 to i64
  %72 = getelementptr inbounds [11 x i32], [11 x i32]* %68, i64 0, i64 %71
  %73 = load i32, i32* %72, align 4
  %74 = add nsw i32 %64, %73
  %75 = load i32, i32* %4, align 4
  %76 = sext i32 %75 to i64
  %77 = getelementptr inbounds [11 x [11 x i32]], [11 x [11 x i32]]* %8, i64 0, i64 %76
  %78 = load i32, i32* %5, align 4
  %79 = sub nsw i32 %78, 1
  %80 = sext i32 %79 to i64
  %81 = getelementptr inbounds [11 x i32], [11 x i32]* %77, i64 0, i64 %80
  %82 = load i32, i32* %81, align 4
  %83 = add nsw i32 %74, %82
  %84 = load i32, i32* %4, align 4
  %85 = sext i32 %84 to i64
  %86 = getelementptr inbounds [11 x [11 x i32]], [11 x [11 x i32]]* %8, i64 0, i64 %85
  %87 = load i32, i32* %5, align 4
  %88 = add nsw i32 %87, 1
  %89 = sext i32 %88 to i64
  %90 = getelementptr inbounds [11 x i32], [11 x i32]* %86, i64 0, i64 %89
  %91 = load i32, i32* %90, align 4
  %92 = add nsw i32 %83, %91
  %93 = load i32, i32* %4, align 4
  %94 = add nsw i32 %93, 1
  %95 = sext i32 %94 to i64
  %96 = getelementptr inbounds [11 x [11 x i32]], [11 x [11 x i32]]* %8, i64 0, i64 %95
  %97 = load i32, i32* %5, align 4
  %98 = sub nsw i32 %97, 1
  %99 = sext i32 %98 to i64
  %100 = getelementptr inbounds [11 x i32], [11 x i32]* %96, i64 0, i64 %99
  %101 = load i32, i32* %100, align 4
  %102 = add nsw i32 %92, %101
  %103 = load i32, i32* %4, align 4
  %104 = add nsw i32 %103, 1
  %105 = sext i32 %104 to i64
  %106 = getelementptr inbounds [11 x [11 x i32]], [11 x [11 x i32]]* %8, i64 0, i64 %105
  %107 = load i32, i32* %5, align 4
  %108 = sext i32 %107 to i64
  %109 = getelementptr inbounds [11 x i32], [11 x i32]* %106, i64 0, i64 %108
  %110 = load i32, i32* %109, align 4
  %111 = add nsw i32 %102, %110
  %112 = load i32, i32* %4, align 4
  %113 = add nsw i32 %112, 1
  %114 = sext i32 %113 to i64
  %115 = getelementptr inbounds [11 x [11 x i32]], [11 x [11 x i32]]* %8, i64 0, i64 %114
  %116 = load i32, i32* %5, align 4
  %117 = add nsw i32 %116, 1
  %118 = sext i32 %117 to i64
  %119 = getelementptr inbounds [11 x i32], [11 x i32]* %115, i64 0, i64 %118
  %120 = load i32, i32* %119, align 4
  %121 = add nsw i32 %111, %120
  %122 = load i32, i32* %4, align 4
  %123 = sext i32 %122 to i64
  %124 = getelementptr inbounds [11 x [11 x i32]], [11 x [11 x i32]]* %7, i64 0, i64 %123
  %125 = load i32, i32* %5, align 4
  %126 = sext i32 %125 to i64
  %127 = getelementptr inbounds [11 x i32], [11 x i32]* %124, i64 0, i64 %126
  store i32 %121, i32* %127, align 4
  br label %128

128:                                              ; preds = %37
  %129 = load i32, i32* %5, align 4
  %130 = add nsw i32 %129, 1
  store i32 %130, i32* %5, align 4
  br label %32

131:                                              ; preds = %32
  br label %132

132:                                              ; preds = %131
  %133 = load i32, i32* %4, align 4
  %134 = add nsw i32 %133, 1
  store i32 %134, i32* %4, align 4
  br label %24

135:                                              ; preds = %24
  %136 = load i32, i32* %6, align 4
  %137 = load i32, i32* %3, align 4
  %138 = icmp ne i32 %136, %137
  br i1 %138, label %139, label %177

139:                                              ; preds = %135
  %140 = load i32, i32* %6, align 4
  %141 = sub nsw i32 5, %140
  store i32 %141, i32* %4, align 4
  br label %142

142:                                              ; preds = %173, %139
  %143 = load i32, i32* %4, align 4
  %144 = load i32, i32* %6, align 4
  %145 = add nsw i32 5, %144
  %146 = icmp sle i32 %143, %145
  br i1 %146, label %147, label %176

147:                                              ; preds = %142
  %148 = load i32, i32* %6, align 4
  %149 = sub nsw i32 5, %148
  store i32 %149, i32* %5, align 4
  br label %150

150:                                              ; preds = %169, %147
  %151 = load i32, i32* %5, align 4
  %152 = load i32, i32* %6, align 4
  %153 = add nsw i32 5, %152
  %154 = icmp sle i32 %151, %153
  br i1 %154, label %155, label %172

155:                                              ; preds = %150
  %156 = load i32, i32* %4, align 4
  %157 = sext i32 %156 to i64
  %158 = getelementptr inbounds [11 x [11 x i32]], [11 x [11 x i32]]* %7, i64 0, i64 %157
  %159 = load i32, i32* %5, align 4
  %160 = sext i32 %159 to i64
  %161 = getelementptr inbounds [11 x i32], [11 x i32]* %158, i64 0, i64 %160
  %162 = load i32, i32* %161, align 4
  %163 = load i32, i32* %4, align 4
  %164 = sext i32 %163 to i64
  %165 = getelementptr inbounds [11 x [11 x i32]], [11 x [11 x i32]]* %8, i64 0, i64 %164
  %166 = load i32, i32* %5, align 4
  %167 = sext i32 %166 to i64
  %168 = getelementptr inbounds [11 x i32], [11 x i32]* %165, i64 0, i64 %167
  store i32 %162, i32* %168, align 4
  br label %169

169:                                              ; preds = %155
  %170 = load i32, i32* %5, align 4
  %171 = add nsw i32 %170, 1
  store i32 %171, i32* %5, align 4
  br label %150

172:                                              ; preds = %150
  br label %173

173:                                              ; preds = %172
  %174 = load i32, i32* %4, align 4
  %175 = add nsw i32 %174, 1
  store i32 %175, i32* %4, align 4
  br label %142

176:                                              ; preds = %142
  br label %177

177:                                              ; preds = %176, %135
  br label %178

178:                                              ; preds = %177
  %179 = load i32, i32* %6, align 4
  %180 = add nsw i32 %179, 1
  store i32 %180, i32* %6, align 4
  br label %17

181:                                              ; preds = %17
  store i32 1, i32* %4, align 4
  br label %182

182:                                              ; preds = %216, %181
  %183 = load i32, i32* %4, align 4
  %184 = icmp sle i32 %183, 9
  br i1 %184, label %185, label %219

185:                                              ; preds = %182
  store i32 1, i32* %5, align 4
  br label %186

186:                                              ; preds = %211, %185
  %187 = load i32, i32* %5, align 4
  %188 = icmp sle i32 %187, 9
  br i1 %188, label %189, label %214

189:                                              ; preds = %186
  %190 = load i32, i32* %5, align 4
  %191 = icmp eq i32 %190, 1
  br i1 %191, label %192, label %201

192:                                              ; preds = %189
  %193 = load i32, i32* %4, align 4
  %194 = sext i32 %193 to i64
  %195 = getelementptr inbounds [11 x [11 x i32]], [11 x [11 x i32]]* %7, i64 0, i64 %194
  %196 = load i32, i32* %5, align 4
  %197 = sext i32 %196 to i64
  %198 = getelementptr inbounds [11 x i32], [11 x i32]* %195, i64 0, i64 %197
  %199 = load i32, i32* %198, align 4
  %200 = call i32 (i8*, ...) @printf(i8* getelementptr inbounds ([3 x i8], [3 x i8]* @.str.1, i64 0, i64 0), i32 %199)
  br label %210

201:                                              ; preds = %189
  %202 = load i32, i32* %4, align 4
  %203 = sext i32 %202 to i64
  %204 = getelementptr inbounds [11 x [11 x i32]], [11 x [11 x i32]]* %7, i64 0, i64 %203
  %205 = load i32, i32* %5, align 4
  %206 = sext i32 %205 to i64
  %207 = getelementptr inbounds [11 x i32], [11 x i32]* %204, i64 0, i64 %206
  %208 = load i32, i32* %207, align 4
  %209 = call i32 (i8*, ...) @printf(i8* getelementptr inbounds ([4 x i8], [4 x i8]* @.str.2, i64 0, i64 0), i32 %208)
  br label %210

210:                                              ; preds = %201, %192
  br label %211

211:                                              ; preds = %210
  %212 = load i32, i32* %5, align 4
  %213 = add nsw i32 %212, 1
  store i32 %213, i32* %5, align 4
  br label %186

214:                                              ; preds = %186
  %215 = call i32 (i8*, ...) @printf(i8* getelementptr inbounds ([2 x i8], [2 x i8]* @.str.3, i64 0, i64 0))
  br label %216

216:                                              ; preds = %214
  %217 = load i32, i32* %4, align 4
  %218 = add nsw i32 %217, 1
  store i32 %218, i32* %4, align 4
  br label %182

219:                                              ; preds = %182
  %220 = load i32, i32* %1, align 4
  ret i32 %220
}

; Function Attrs: argmemonly nounwind willreturn
declare void @llvm.memset.p0i8.i64(i8* nocapture writeonly, i8, i64, i1 immarg) #1

declare dso_local i32 @__isoc99_scanf(i8*, ...) #2

declare dso_local i32 @printf(i8*, ...) #2


!llvm.module.flags = !{!0}
!llvm.ident = !{!1}

!0 = !{i32 1, !"wchar_size", i32 4}
!1 = !{!"clang version 10.0.0-4ubuntu1 "}
